(i__main__
Student
p0
(dp1
S'marks1'
p2
F73.0
sS'marks2'
p3
F75.0
sS'marks3'
p4
F80.0
sS'name'
p5
S'Rohan'
p6
sS'rollNo'
p7
I13
sb.(i__main__
Student
p0
(dp1
S'marks1'
p2
F84.0
sS'marks2'
p3
F79.0
sS'marks3'
p4
F77.0
sS'name'
p5
S'Nitya'
p6
sS'rollNo'
p7
I15
sb.